; Function Attrs: mustprogress nofree norecurse nosync nounwind willreturn memory(read, inaccessiblemem: none) uwtable
define dso_local noundef zeroext i1 @_ZNK6Effect19union_field_is_readEv(ptr noundef nonnull readonly align 8 captures(none) dereferenceable(74) %0) local_unnamed_addr #7 align 2 {
  %2 = getelementptr inbounds nuw i8, ptr %0, i64 8
  %3 = load ptr, ptr %2, align 8, !tbaa !16
  %4 = load ptr, ptr %0, align 8, !tbaa !17
  %.not10.not = icmp eq ptr %3, %4
  br i1 %.not10.not, label %_ZNK8Variable21is_inside_union_fieldEv.exit.thread, label %.lr.ph.preheader

.lr.ph.preheader:                                 ; preds = %1
  %5 = ptrtoint ptr %3 to i64
  %6 = ptrtoint ptr %4 to i64
  %7 = sub i64 %5, %6
  %8 = ashr exact i64 %7, 3
  %umax = tail call i64 @llvm.umax.i64(i64 %8, i64 1)
  br label %.lr.ph

.lr.ph:                                           ; preds = %.lr.ph.preheader, %_ZNK8Variable21is_inside_union_fieldEv.exit
  %.0511 = phi i64 [ %17, %_ZNK8Variable21is_inside_union_fieldEv.exit ], [ 0, %.lr.ph.preheader ]
  %9 = getelementptr inbounds nuw ptr, ptr %4, i64 %.0511
  %10 = load ptr, ptr %9, align 8, !tbaa !23
  br label %tailrecurse.i

tailrecurse.i:                                    ; preds = %_ZNK8Variable14is_union_fieldEv.exit.i, %.lr.ph
  %.tr.i = phi ptr [ %10, %.lr.ph ], [ %12, %_ZNK8Variable14is_union_fieldEv.exit.i ]
  %11 = getelementptr inbounds nuw i8, ptr %.tr.i, i64 88
  %12 = load ptr, ptr %11, align 8, !tbaa !48
  %.not.i.not.not.i.not = icmp eq ptr %12, null
  br i1 %.not.i.not.not.i.not, label %_ZNK8Variable21is_inside_union_fieldEv.exit, label %_ZNK8Variable14is_union_fieldEv.exit.i

_ZNK8Variable14is_union_fieldEv.exit.i:           ; preds = %tailrecurse.i
  %13 = getelementptr inbounds nuw i8, ptr %12, i64 64
  %14 = load ptr, ptr %13, align 8, !tbaa !49
  %15 = load i32, ptr %14, align 8, !tbaa !50
  %16 = icmp eq i32 %15, 2
  br i1 %16, label %_ZNK8Variable21is_inside_union_fieldEv.exit.thread, label %tailrecurse.i

_ZNK8Variable21is_inside_union_fieldEv.exit:      ; preds = %tailrecurse.i
  %17 = add nuw i64 %.0511, 1
  %exitcond.not = icmp eq i64 %17, %umax
  br i1 %exitcond.not, label %_ZNK8Variable21is_inside_union_fieldEv.exit.thread, label %.lr.ph, !llvm.loop !158

_ZNK8Variable21is_inside_union_fieldEv.exit.thread: ; preds = %_ZNK8Variable21is_inside_union_fieldEv.exit, %_ZNK8Variable14is_union_fieldEv.exit.i, %1
  %.not9 = phi i1 [ false, %1 ], [ true, %_ZNK8Variable14is_union_fieldEv.exit.i ], [ false, %_ZNK8Variable21is_inside_union_fieldEv.exit ]
  ret i1 %.not9
}